target datalayout = "e-m:e-p270:32:32-p271:32:32-p272:64:64-i64:64-i128:128-f80:128-n8:16:32:64-S128"
target triple = "x86_64-unknown-linux-gnu"

%"class.net::TcpCubicSenderPackets" = type { %"class.net::TcpCubicSenderBase.base", %"class.net::Cubic", i64, i64, i64, i64, i64, i64, i64, i64 }
%"class.net::TcpCubicSenderBase.base" = type <{ %"class.net::SendAlgorithmInterface", %"class.net::HybridSlowStart", %"class.net::PrrSender", ptr, ptr, i8, [3 x i8], i32, i64, i64, i64, i8, i8, i8, i8, i8 }>
%"class.net::SendAlgorithmInterface" = type { ptr }
%"class.net::HybridSlowStart" = type { i8, i32, i64, i64, i32, %"class.net::QuicTime::Delta" }
%"class.net::QuicTime::Delta" = type { %"class.base::TimeDelta", i64 }
%"class.base::TimeDelta" = type { i64 }
%"class.net::PrrSender" = type { i64, i64, i64, i64 }
%"class.net::Cubic" = type { ptr, i32, %"class.net::QuicTime", %"class.net::QuicTime", %"class.net::QuicTime", i64, i64, i64, i64, i64, i32, i64 }
%"class.net::QuicTime" = type { i64 }

; Function Attrs: mustprogress uwtable
define dso_local void @_ZN3net21TcpCubicSenderPacketsC2EPKNS_9QuicClockEPKNS_8RttStatsEbmmPNS_19QuicConnectionStatsE(ptr noundef nonnull align 8 dereferenceable(304) %this, ptr noundef %clock, ptr noundef %rtt_stats, i1 noundef zeroext %reno, i64 noundef %initial_tcp_congestion_window, i64 noundef %max_tcp_congestion_window, ptr noundef %stats) unnamed_addr #0 align 2 personality ptr @__gxx_personality_v0 {
entry:
  %this.addr = alloca ptr, align 8
  %clock.addr = alloca ptr, align 8
  %rtt_stats.addr = alloca ptr, align 8
  %reno.addr = alloca i8, align 1
  %initial_tcp_congestion_window.addr = alloca i64, align 8
  %max_tcp_congestion_window.addr = alloca i64, align 8
  %stats.addr = alloca ptr, align 8
  %exn.slot = alloca ptr, align 8
  %ehselector.slot = alloca i32, align 4
  store ptr %this, ptr %this.addr, align 8
  store ptr %clock, ptr %clock.addr, align 8
  store ptr %rtt_stats, ptr %rtt_stats.addr, align 8
  %frombool = zext i1 %reno to i8
  store i8 %frombool, ptr %reno.addr, align 1
  store i64 %initial_tcp_congestion_window, ptr %initial_tcp_congestion_window.addr, align 8
  store i64 %max_tcp_congestion_window, ptr %max_tcp_congestion_window.addr, align 8
  store ptr %stats, ptr %stats.addr, align 8
  %this1 = load ptr, ptr %this.addr, align 8
  %0 = load ptr, ptr %clock.addr, align 8
  %1 = load ptr, ptr %rtt_stats.addr, align 8
  %2 = load i8, ptr %reno.addr, align 1
  %tobool = trunc i8 %2 to i1
  %3 = load ptr, ptr %stats.addr, align 8
  call void @_ZN3net18TcpCubicSenderBaseC2EPKNS_9QuicClockEPKNS_8RttStatsEbPNS_19QuicConnectionStatsE(ptr noundef nonnull align 8 dereferenceable(141) %this1, ptr noundef %0, ptr noundef %1, i1 noundef zeroext %tobool, ptr noundef %3)
  store ptr getelementptr inbounds ({ [29 x ptr] }, ptr @_ZTVN3net21TcpCubicSenderPacketsE, i32 0, i32 0, i32 2), ptr %this1, align 8
  %cubic_ = getelementptr inbounds %"class.net::TcpCubicSenderPackets", ptr %this1, i32 0, i32 1
  %4 = load ptr, ptr %clock.addr, align 8
  invoke void @_ZN3net5CubicC1EPKNS_9QuicClockE(ptr noundef nonnull align 8 dereferenceable(96) %cubic_, ptr noundef %4)
          to label %invoke.cont unwind label %lpad

invoke.cont:                                      ; preds = %entry
  %congestion_window_count_ = getelementptr inbounds %"class.net::TcpCubicSenderPackets", ptr %this1, i32 0, i32 2
  store i64 0, ptr %congestion_window_count_, align 8
  %congestion_window_ = getelementptr inbounds %"class.net::TcpCubicSenderPackets", ptr %this1, i32 0, i32 3
  %5 = load i64, ptr %initial_tcp_congestion_window.addr, align 8
  store i64 %5, ptr %congestion_window_, align 8
  %min_congestion_window_ = getelementptr inbounds %"class.net::TcpCubicSenderPackets", ptr %this1, i32 0, i32 4
  store i64 2, ptr %min_congestion_window_, align 8
  %slowstart_threshold_ = getelementptr inbounds %"class.net::TcpCubicSenderPackets", ptr %this1, i32 0, i32 5
  %6 = load i64, ptr %max_tcp_congestion_window.addr, align 8
  store i64 %6, ptr %slowstart_threshold_, align 8
  %max_tcp_congestion_window_ = getelementptr inbounds %"class.net::TcpCubicSenderPackets", ptr %this1, i32 0, i32 6
  %7 = load i64, ptr %max_tcp_congestion_window.addr, align 8
  store i64 %7, ptr %max_tcp_congestion_window_, align 8
  %initial_tcp_congestion_window_ = getelementptr inbounds %"class.net::TcpCubicSenderPackets", ptr %this1, i32 0, i32 7
  %8 = load i64, ptr %initial_tcp_congestion_window.addr, align 8
  store i64 %8, ptr %initial_tcp_congestion_window_, align 8
  %initial_max_tcp_congestion_window_ = getelementptr inbounds %"class.net::TcpCubicSenderPackets", ptr %this1, i32 0, i32 8
  %9 = load i64, ptr %max_tcp_congestion_window.addr, align 8
  store i64 %9, ptr %initial_max_tcp_congestion_window_, align 8
  %min_slow_start_exit_window_ = getelementptr inbounds %"class.net::TcpCubicSenderPackets", ptr %this1, i32 0, i32 9
  %min_congestion_window_2 = getelementptr inbounds %"class.net::TcpCubicSenderPackets", ptr %this1, i32 0, i32 4
  %10 = load i64, ptr %min_congestion_window_2, align 8
  store i64 %10, ptr %min_slow_start_exit_window_, align 8
  ret void

lpad:                                             ; preds = %entry
  %11 = landingpad { ptr, i32 }
          cleanup
  %12 = extractvalue { ptr, i32 } %11, 0
  store ptr %12, ptr %exn.slot, align 8
  %13 = extractvalue { ptr, i32 } %11, 1
  store i32 %13, ptr %ehselector.slot, align 4
  call void @_ZN3net18TcpCubicSenderBaseD2Ev(ptr noundef nonnull align 8 dereferenceable(141) %this1) #6
  br label %eh.resume

eh.resume:                                        ; preds = %lpad
  %exn = load ptr, ptr %exn.slot, align 8
  %sel = load i32, ptr %ehselector.slot, align 4
  %lpad.val = insertvalue { ptr, i32 } poison, ptr %exn, 0
  %lpad.val3 = insertvalue { ptr, i32 } %lpad.val, i32 %sel, 1
  resume { ptr, i32 } %lpad.val3
}