; Function Attrs: mustprogress uwtable
define dso_local void @_ZN3net21TcpCubicSenderPacketsC2EPKNS_9QuicClockEPKNS_8RttStatsEbmmPNS_19QuicConnectionStatsE(ptr noundef nonnull align 8 dereferenceable(304) %this, ptr noundef %clock, ptr noundef %rtt_stats, i1 noundef zeroext %reno, i64 noundef %initial_tcp_congestion_window, i64 noundef %max_tcp_congestion_window, ptr noundef %stats) unnamed_addr #0 align 2 personality ptr @__gxx_personality_v0 {
entry:
  tail call void @_ZN3net18TcpCubicSenderBaseC2EPKNS_9QuicClockEPKNS_8RttStatsEbPNS_19QuicConnectionStatsE(ptr noundef nonnull align 8 dereferenceable(141) %this, ptr noundef %clock, ptr noundef %rtt_stats, i1 noundef zeroext %reno, ptr noundef %stats)
  store ptr getelementptr inbounds ({ [29 x ptr] }, ptr @_ZTVN3net21TcpCubicSenderPacketsE, i64 0, i32 0, i64 2), ptr %this, align 8
  %cubic_ = getelementptr inbounds i8, ptr %this, i64 144
  invoke void @_ZN3net5CubicC1EPKNS_9QuicClockE(ptr noundef nonnull align 8 dereferenceable(96) %cubic_, ptr noundef %clock)
          to label %invoke.cont unwind label %lpad

invoke.cont:                                      ; preds = %entry
  %congestion_window_count_ = getelementptr inbounds i8, ptr %this, i64 240
  store i64 0, ptr %congestion_window_count_, align 8
  %congestion_window_ = getelementptr inbounds i8, ptr %this, i64 248
  store i64 %initial_tcp_congestion_window, ptr %congestion_window_, align 8
  %min_congestion_window_ = getelementptr inbounds i8, ptr %this, i64 256
  store i64 2, ptr %min_congestion_window_, align 8
  %slowstart_threshold_ = getelementptr inbounds i8, ptr %this, i64 264
  store i64 %max_tcp_congestion_window, ptr %slowstart_threshold_, align 8
  %max_tcp_congestion_window_ = getelementptr inbounds i8, ptr %this, i64 272
  store i64 %max_tcp_congestion_window, ptr %max_tcp_congestion_window_, align 8
  %initial_tcp_congestion_window_ = getelementptr inbounds i8, ptr %this, i64 280
  store i64 %initial_tcp_congestion_window, ptr %initial_tcp_congestion_window_, align 8
  %initial_max_tcp_congestion_window_ = getelementptr inbounds i8, ptr %this, i64 288
  store i64 %max_tcp_congestion_window, ptr %initial_max_tcp_congestion_window_, align 8
  %min_slow_start_exit_window_ = getelementptr inbounds i8, ptr %this, i64 296
  store i64 2, ptr %min_slow_start_exit_window_, align 8
  ret void

lpad:                                             ; preds = %entry
  %0 = landingpad { ptr, i32 }
          cleanup
  tail call void @_ZN3net18TcpCubicSenderBaseD2Ev(ptr noundef nonnull align 8 dereferenceable(141) %this) #9
  resume { ptr, i32 } %0
}